; Function Attrs: mustprogress nounwind uwtable
define noundef i32 @_ZN8facebook5velox9connector22stringToCommitStrategyERKNSt7__cxx1112basic_stringIcSt11char_traitsIcESaIcEEE(ptr noundef nonnull align 8 dereferenceable(32) %strategy) local_unnamed_addr #4 {
entry:
  %call.i = tail call noundef i32 @_ZNKSt7__cxx1112basic_stringIcSt11char_traitsIcESaIcEE7compareEPKc(ptr noundef nonnull align 8 dereferenceable(32) %strategy, ptr noundef nonnull @.str.1) #19
  %cmp.i = icmp eq i32 %call.i, 0
  br i1 %cmp.i, label %return, label %if.else

if.else:                                          ; preds = %entry
  %call.i2 = tail call noundef i32 @_ZNKSt7__cxx1112basic_stringIcSt11char_traitsIcESaIcEE7compareEPKc(ptr noundef nonnull align 8 dereferenceable(32) %strategy, ptr noundef nonnull @.str.2) #19
  %cmp.i3 = icmp eq i32 %call.i2, 0
  br i1 %cmp.i3, label %return, label %if.else3

if.else3:                                         ; preds = %if.else
  tail call void @llvm.trap()
  unreachable

return:                                           ; preds = %if.else, %entry
  %retval.0 = phi i32 [ 0, %entry ], [ 1, %if.else ]
  ret i32 %retval.0
}